; Function Attrs: mustprogress uwtable
define noundef i32 @_ZNK6icu_7721CollationRootElements16getPrimaryBeforeEja(ptr noundef nonnull readonly align 8 captures(none) dereferenceable(12) %0, i32 noundef %1, i8 noundef signext %2) local_unnamed_addr #1 align 2 {
  %4 = load ptr, ptr %0, align 8, !tbaa !3
  %5 = getelementptr inbounds nuw i8, ptr %4, i64 8
  %6 = load i32, ptr %5, align 4, !tbaa !10
  %7 = getelementptr inbounds nuw i8, ptr %0, i64 8
  %8 = load i32, ptr %7, align 8, !tbaa !11
  %9 = add nsw i32 %8, -1
  %10 = add nsw i32 %6, 1
  %11 = icmp slt i32 %10, %9
  br i1 %11, label %.lr.ph.i, label %_ZNK6icu_7721CollationRootElements11findPrimaryEj.exit

.lr.ph.i:                                         ; preds = %3, %._crit_edge62.i.i
  %.038.i11.i = phi i32 [ %.033..038.i.i, %._crit_edge62.i.i ], [ %9, %3 ]
  %.041.i10.i = phi i32 [ %.041..033.i.i, %._crit_edge62.i.i ], [ %6, %3 ]
  %12 = add nsw i32 %.041.i10.i, %.038.i11.i
  %13 = sdiv i32 %12, 2
  %14 = sext i32 %13 to i64
  %15 = getelementptr inbounds i32, ptr %4, i64 %14
  %16 = load i32, ptr %15, align 4, !tbaa !10
  %17 = and i32 %16, 128
  %.not.i.i = icmp eq i32 %17, 0
  br i1 %.not.i.i, label %._crit_edge62.i.i, label %.preheader52.i.i

.preheader52.i.i:                                 ; preds = %.lr.ph.i
  %.02953.i.i = add nsw i32 %13, 1
  %18 = icmp eq i32 %.02953.i.i, %.038.i11.i
  br i1 %18, label %.preheader.i.i, label %.lr.ph.preheader.i.i

.lr.ph.preheader.i.i:                             ; preds = %.preheader52.i.i
  %19 = add nsw i64 %14, 1
  br label %.lr.ph.i.i

20:                                               ; preds = %.lr.ph.i.i
  %indvars.iv.next.i.i = add nsw i64 %indvars.iv.i.i, 1
  %21 = trunc nsw i64 %indvars.iv.next.i.i to i32
  %22 = icmp eq i32 %.038.i11.i, %21
  br i1 %22, label %.preheader.i.i, label %.lr.ph.i.i, !llvm.loop !12

.lr.ph.i.i:                                       ; preds = %20, %.lr.ph.preheader.i.i
  %indvars.iv.i.i = phi i64 [ %19, %.lr.ph.preheader.i.i ], [ %indvars.iv.next.i.i, %20 ]
  %23 = getelementptr inbounds i32, ptr %4, i64 %indvars.iv.i.i
  %24 = load i32, ptr %23, align 4, !tbaa !10
  %25 = and i32 %24, 128
  %26 = icmp eq i32 %25, 0
  br i1 %26, label %._crit_edge62.loopexit90.i.i, label %20, !llvm.loop !12

.preheader.i.i:                                   ; preds = %20, %.preheader52.i.i
  %.13059.i.i = add nsw i32 %13, -1
  %27 = icmp eq i32 %.13059.i.i, %.041.i10.i
  br i1 %27, label %_ZNK6icu_7721CollationRootElements11findPrimaryEj.exit, label %.lr.ph61.preheader.i.i

.lr.ph61.preheader.i.i:                           ; preds = %.preheader.i.i
  %28 = sext i32 %.13059.i.i to i64
  br label %.lr.ph61.i.i

29:                                               ; preds = %.lr.ph61.i.i
  %indvars.iv.next71.i.i = add nsw i64 %indvars.iv70.i.i, -1
  %30 = trunc nsw i64 %indvars.iv.next71.i.i to i32
  %31 = icmp eq i32 %.041.i10.i, %30
  br i1 %31, label %_ZNK6icu_7721CollationRootElements11findPrimaryEj.exit, label %.lr.ph61.i.i, !llvm.loop !14

.lr.ph61.i.i:                                     ; preds = %29, %.lr.ph61.preheader.i.i
  %indvars.iv70.i.i = phi i64 [ %28, %.lr.ph61.preheader.i.i ], [ %indvars.iv.next71.i.i, %29 ]
  %32 = getelementptr inbounds i32, ptr %4, i64 %indvars.iv70.i.i
  %33 = load i32, ptr %32, align 4, !tbaa !10
  %34 = and i32 %33, 128
  %35 = icmp eq i32 %34, 0
  br i1 %35, label %._crit_edge62.loopexit.i.i, label %29, !llvm.loop !14

._crit_edge62.loopexit.i.i:                       ; preds = %.lr.ph61.i.i
  %36 = trunc nsw i64 %indvars.iv70.i.i to i32
  br label %._crit_edge62.i.i

._crit_edge62.loopexit90.i.i:                     ; preds = %.lr.ph.i.i
  %37 = trunc nsw i64 %indvars.iv.i.i to i32
  br label %._crit_edge62.i.i

._crit_edge62.i.i:                                ; preds = %._crit_edge62.loopexit90.i.i, %._crit_edge62.loopexit.i.i, %.lr.ph.i
  %.033.i.i = phi i32 [ %13, %.lr.ph.i ], [ %36, %._crit_edge62.loopexit.i.i ], [ %37, %._crit_edge62.loopexit90.i.i ]
  %.031.i.i = phi i32 [ %16, %.lr.ph.i ], [ %33, %._crit_edge62.loopexit.i.i ], [ %24, %._crit_edge62.loopexit90.i.i ]
  %38 = and i32 %.031.i.i, -256
  %39 = icmp ult i32 %1, %38
  %.041..033.i.i = select i1 %39, i32 %.041.i10.i, i32 %.033.i.i
  %.033..038.i.i = select i1 %39, i32 %.033.i.i, i32 %.038.i11.i
  %40 = add nsw i32 %.041..033.i.i, 1
  %41 = icmp slt i32 %40, %.033..038.i.i
  br i1 %41, label %.lr.ph.i, label %_ZNK6icu_7721CollationRootElements11findPrimaryEj.exit

_ZNK6icu_7721CollationRootElements11findPrimaryEj.exit: ; preds = %.preheader.i.i, %._crit_edge62.i.i, %29, %3
  %.041.i9.i = phi i32 [ %6, %3 ], [ %.041.i10.i, %29 ], [ %.041..033.i.i, %._crit_edge62.i.i ], [ %.041.i10.i, %.preheader.i.i ]
  %42 = sext i32 %.041.i9.i to i64
  %43 = getelementptr inbounds i32, ptr %4, i64 %42
  %44 = load i32, ptr %43, align 4, !tbaa !10
  %45 = and i32 %44, -256
  %46 = icmp eq i32 %1, %45
  br i1 %46, label %47, label %55

47:                                               ; preds = %_ZNK6icu_7721CollationRootElements11findPrimaryEj.exit
  %48 = and i32 %44, 127
  %49 = icmp eq i32 %48, 0
  br i1 %49, label %.preheader, label %59

.preheader:                                       ; preds = %47, %.preheader
  %indvars.iv = phi i64 [ %indvars.iv.next, %.preheader ], [ %42, %47 ]
  %indvars.iv.next = add nsw i64 %indvars.iv, -1
  %50 = getelementptr inbounds i32, ptr %4, i64 %indvars.iv.next
  %51 = load i32, ptr %50, align 4, !tbaa !10
  %52 = and i32 %51, 128
  %.not = icmp eq i32 %52, 0
  br i1 %.not, label %53, label %.preheader, !llvm.loop !18

53:                                               ; preds = %.preheader
  %54 = and i32 %51, -256
  br label %66

55:                                               ; preds = %_ZNK6icu_7721CollationRootElements11findPrimaryEj.exit
  %56 = getelementptr i8, ptr %43, i64 4
  %57 = load i32, ptr %56, align 4, !tbaa !10
  %58 = and i32 %57, 127
  br label %59

59:                                               ; preds = %47, %55
  %.019 = phi i32 [ %48, %47 ], [ %58, %55 ]
  %60 = and i32 %1, 65535
  %61 = icmp eq i32 %60, 0
  br i1 %61, label %62, label %64

62:                                               ; preds = %59
  %63 = tail call noundef i32 @_ZN6icu_779Collation26decTwoBytePrimaryByOneStepEjai(i32 noundef %1, i8 noundef signext %2, i32 noundef %.019)
  br label %66

64:                                               ; preds = %59
  %65 = tail call noundef i32 @_ZN6icu_779Collation28decThreeBytePrimaryByOneStepEjai(i32 noundef %1, i8 noundef signext %2, i32 noundef %.019)
  br label %66

66:                                               ; preds = %64, %62, %53
  %.0 = phi i32 [ %54, %53 ], [ %63, %62 ], [ %65, %64 ]
  ret i32 %.0
}